target datalayout = "e-m:e-p270:32:32-p271:32:32-p272:64:64-i64:64-i128:128-f80:128-n8:16:32:64-S128"
target triple = "x86_64-pc-linux-gnu"

; Function Attrs: nounwind uwtable
define void @ff_ivi_col_haar8(ptr noundef %0, ptr noundef %1, i64 noundef %2, ptr noundef %3) #0 {
  %5 = alloca ptr, align 8
  %6 = alloca ptr, align 8
  %7 = alloca i64, align 8
  %8 = alloca ptr, align 8
  %9 = alloca i32, align 4
  %10 = alloca i32, align 4
  %11 = alloca i32, align 4
  %12 = alloca i32, align 4
  %13 = alloca i32, align 4
  %14 = alloca i32, align 4
  %15 = alloca i32, align 4
  %16 = alloca i32, align 4
  %17 = alloca i32, align 4
  %18 = alloca i32, align 4
  store ptr %0, ptr %5, align 8, !tbaa !40
  store ptr %1, ptr %6, align 8, !tbaa !30
  store i64 %2, ptr %7, align 8, !tbaa !11
  store ptr %3, ptr %8, align 8, !tbaa !9
  call void @llvm.lifetime.start.p0(i64 4, ptr %9) #4
  call void @llvm.lifetime.start.p0(i64 4, ptr %10) #4
  call void @llvm.lifetime.start.p0(i64 4, ptr %11) #4
  call void @llvm.lifetime.start.p0(i64 4, ptr %12) #4
  call void @llvm.lifetime.start.p0(i64 4, ptr %13) #4
  call void @llvm.lifetime.start.p0(i64 4, ptr %14) #4
  call void @llvm.lifetime.start.p0(i64 4, ptr %15) #4
  call void @llvm.lifetime.start.p0(i64 4, ptr %16) #4
  call void @llvm.lifetime.start.p0(i64 4, ptr %17) #4
  call void @llvm.lifetime.start.p0(i64 4, ptr %18) #4
  store i32 0, ptr %9, align 4, !tbaa !13
  br label %19

19:                                               ; preds = %211, %4
  %20 = load i32, ptr %9, align 4, !tbaa !13
  %21 = icmp slt i32 %20, 8
  br i1 %21, label %22, label %214

22:                                               ; preds = %19
  %23 = load ptr, ptr %8, align 8, !tbaa !9
  %24 = load i32, ptr %9, align 4, !tbaa !13
  %25 = sext i32 %24 to i64
  %26 = getelementptr inbounds i8, ptr %23, i64 %25
  %27 = load i8, ptr %26, align 1, !tbaa !34
  %28 = icmp ne i8 %27, 0
  br i1 %28, label %29, label %173

29:                                               ; preds = %22
  %30 = load ptr, ptr %5, align 8, !tbaa !40
  %31 = getelementptr inbounds i32, ptr %30, i64 0
  %32 = load i32, ptr %31, align 4, !tbaa !13
  %33 = mul nsw i32 %32, 2
  store i32 %33, ptr %11, align 4, !tbaa !13
  %34 = load ptr, ptr %5, align 8, !tbaa !40
  %35 = getelementptr inbounds i32, ptr %34, i64 8
  %36 = load i32, ptr %35, align 4, !tbaa !13
  %37 = mul nsw i32 %36, 2
  store i32 %37, ptr %15, align 4, !tbaa !13
  %38 = load i32, ptr %11, align 4, !tbaa !13
  %39 = load i32, ptr %15, align 4, !tbaa !13
  %40 = sub nsw i32 %38, %39
  %41 = ashr i32 %40, 1
  store i32 %41, ptr %10, align 4, !tbaa !13
  %42 = load i32, ptr %11, align 4, !tbaa !13
  %43 = load i32, ptr %15, align 4, !tbaa !13
  %44 = add nsw i32 %42, %43
  %45 = ashr i32 %44, 1
  store i32 %45, ptr %11, align 4, !tbaa !13
  %46 = load i32, ptr %10, align 4, !tbaa !13
  store i32 %46, ptr %15, align 4, !tbaa !13
  %47 = load i32, ptr %11, align 4, !tbaa !13
  %48 = load ptr, ptr %5, align 8, !tbaa !40
  %49 = getelementptr inbounds i32, ptr %48, i64 16
  %50 = load i32, ptr %49, align 4, !tbaa !13
  %51 = sub nsw i32 %47, %50
  %52 = ashr i32 %51, 1
  store i32 %52, ptr %10, align 4, !tbaa !13
  %53 = load i32, ptr %11, align 4, !tbaa !13
  %54 = load ptr, ptr %5, align 8, !tbaa !40
  %55 = getelementptr inbounds i32, ptr %54, i64 16
  %56 = load i32, ptr %55, align 4, !tbaa !13
  %57 = add nsw i32 %53, %56
  %58 = ashr i32 %57, 1
  store i32 %58, ptr %11, align 4, !tbaa !13
  %59 = load i32, ptr %10, align 4, !tbaa !13
  store i32 %59, ptr %13, align 4, !tbaa !13
  %60 = load i32, ptr %15, align 4, !tbaa !13
  %61 = load ptr, ptr %5, align 8, !tbaa !40
  %62 = getelementptr inbounds i32, ptr %61, i64 24
  %63 = load i32, ptr %62, align 4, !tbaa !13
  %64 = sub nsw i32 %60, %63
  %65 = ashr i32 %64, 1
  store i32 %65, ptr %10, align 4, !tbaa !13
  %66 = load i32, ptr %15, align 4, !tbaa !13
  %67 = load ptr, ptr %5, align 8, !tbaa !40
  %68 = getelementptr inbounds i32, ptr %67, i64 24
  %69 = load i32, ptr %68, align 4, !tbaa !13
  %70 = add nsw i32 %66, %69
  %71 = ashr i32 %70, 1
  store i32 %71, ptr %15, align 4, !tbaa !13
  %72 = load i32, ptr %10, align 4, !tbaa !13
  store i32 %72, ptr %17, align 4, !tbaa !13
  %73 = load i32, ptr %11, align 4, !tbaa !13
  %74 = load ptr, ptr %5, align 8, !tbaa !40
  %75 = getelementptr inbounds i32, ptr %74, i64 32
  %76 = load i32, ptr %75, align 4, !tbaa !13
  %77 = sub nsw i32 %73, %76
  %78 = ashr i32 %77, 1
  store i32 %78, ptr %10, align 4, !tbaa !13
  %79 = load i32, ptr %11, align 4, !tbaa !13
  %80 = load ptr, ptr %5, align 8, !tbaa !40
  %81 = getelementptr inbounds i32, ptr %80, i64 32
  %82 = load i32, ptr %81, align 4, !tbaa !13
  %83 = add nsw i32 %79, %82
  %84 = ashr i32 %83, 1
  store i32 %84, ptr %11, align 4, !tbaa !13
  %85 = load i32, ptr %10, align 4, !tbaa !13
  store i32 %85, ptr %12, align 4, !tbaa !13
  %86 = load i32, ptr %13, align 4, !tbaa !13
  %87 = load ptr, ptr %5, align 8, !tbaa !40
  %88 = getelementptr inbounds i32, ptr %87, i64 40
  %89 = load i32, ptr %88, align 4, !tbaa !13
  %90 = sub nsw i32 %86, %89
  %91 = ashr i32 %90, 1
  store i32 %91, ptr %10, align 4, !tbaa !13
  %92 = load i32, ptr %13, align 4, !tbaa !13
  %93 = load ptr, ptr %5, align 8, !tbaa !40
  %94 = getelementptr inbounds i32, ptr %93, i64 40
  %95 = load i32, ptr %94, align 4, !tbaa !13
  %96 = add nsw i32 %92, %95
  %97 = ashr i32 %96, 1
  store i32 %97, ptr %13, align 4, !tbaa !13
  %98 = load i32, ptr %10, align 4, !tbaa !13
  store i32 %98, ptr %14, align 4, !tbaa !13
  %99 = load i32, ptr %15, align 4, !tbaa !13
  %100 = load ptr, ptr %5, align 8, !tbaa !40
  %101 = getelementptr inbounds i32, ptr %100, i64 48
  %102 = load i32, ptr %101, align 4, !tbaa !13
  %103 = sub nsw i32 %99, %102
  %104 = ashr i32 %103, 1
  store i32 %104, ptr %10, align 4, !tbaa !13
  %105 = load i32, ptr %15, align 4, !tbaa !13
  %106 = load ptr, ptr %5, align 8, !tbaa !40
  %107 = getelementptr inbounds i32, ptr %106, i64 48
  %108 = load i32, ptr %107, align 4, !tbaa !13
  %109 = add nsw i32 %105, %108
  %110 = ashr i32 %109, 1
  store i32 %110, ptr %15, align 4, !tbaa !13
  %111 = load i32, ptr %10, align 4, !tbaa !13
  store i32 %111, ptr %16, align 4, !tbaa !13
  %112 = load i32, ptr %17, align 4, !tbaa !13
  %113 = load ptr, ptr %5, align 8, !tbaa !40
  %114 = getelementptr inbounds i32, ptr %113, i64 56
  %115 = load i32, ptr %114, align 4, !tbaa !13
  %116 = sub nsw i32 %112, %115
  %117 = ashr i32 %116, 1
  store i32 %117, ptr %10, align 4, !tbaa !13
  %118 = load i32, ptr %17, align 4, !tbaa !13
  %119 = load ptr, ptr %5, align 8, !tbaa !40
  %120 = getelementptr inbounds i32, ptr %119, i64 56
  %121 = load i32, ptr %120, align 4, !tbaa !13
  %122 = add nsw i32 %118, %121
  %123 = ashr i32 %122, 1
  store i32 %123, ptr %17, align 4, !tbaa !13
  %124 = load i32, ptr %10, align 4, !tbaa !13
  store i32 %124, ptr %18, align 4, !tbaa !13
  %125 = load i32, ptr %11, align 4, !tbaa !13
  %126 = trunc i32 %125 to i16
  %127 = load ptr, ptr %6, align 8, !tbaa !30
  %128 = load i64, ptr %7, align 8, !tbaa !11
  %129 = mul nsw i64 0, %128
  %130 = getelementptr inbounds i16, ptr %127, i64 %129
  store i16 %126, ptr %130, align 2, !tbaa !32
  %131 = load i32, ptr %12, align 4, !tbaa !13
  %132 = trunc i32 %131 to i16
  %133 = load ptr, ptr %6, align 8, !tbaa !30
  %134 = load i64, ptr %7, align 8, !tbaa !11
  %135 = mul nsw i64 1, %134
  %136 = getelementptr inbounds i16, ptr %133, i64 %135
  store i16 %132, ptr %136, align 2, !tbaa !32
  %137 = load i32, ptr %13, align 4, !tbaa !13
  %138 = trunc i32 %137 to i16
  %139 = load ptr, ptr %6, align 8, !tbaa !30
  %140 = load i64, ptr %7, align 8, !tbaa !11
  %141 = mul nsw i64 2, %140
  %142 = getelementptr inbounds i16, ptr %139, i64 %141
  store i16 %138, ptr %142, align 2, !tbaa !32
  %143 = load i32, ptr %14, align 4, !tbaa !13
  %144 = trunc i32 %143 to i16
  %145 = load ptr, ptr %6, align 8, !tbaa !30
  %146 = load i64, ptr %7, align 8, !tbaa !11
  %147 = mul nsw i64 3, %146
  %148 = getelementptr inbounds i16, ptr %145, i64 %147
  store i16 %144, ptr %148, align 2, !tbaa !32
  %149 = load i32, ptr %15, align 4, !tbaa !13
  %150 = trunc i32 %149 to i16
  %151 = load ptr, ptr %6, align 8, !tbaa !30
  %152 = load i64, ptr %7, align 8, !tbaa !11
  %153 = mul nsw i64 4, %152
  %154 = getelementptr inbounds i16, ptr %151, i64 %153
  store i16 %150, ptr %154, align 2, !tbaa !32
  %155 = load i32, ptr %16, align 4, !tbaa !13
  %156 = trunc i32 %155 to i16
  %157 = load ptr, ptr %6, align 8, !tbaa !30
  %158 = load i64, ptr %7, align 8, !tbaa !11
  %159 = mul nsw i64 5, %158
  %160 = getelementptr inbounds i16, ptr %157, i64 %159
  store i16 %156, ptr %160, align 2, !tbaa !32
  %161 = load i32, ptr %17, align 4, !tbaa !13
  %162 = trunc i32 %161 to i16
  %163 = load ptr, ptr %6, align 8, !tbaa !30
  %164 = load i64, ptr %7, align 8, !tbaa !11
  %165 = mul nsw i64 6, %164
  %166 = getelementptr inbounds i16, ptr %163, i64 %165
  store i16 %162, ptr %166, align 2, !tbaa !32
  %167 = load i32, ptr %18, align 4, !tbaa !13
  %168 = trunc i32 %167 to i16
  %169 = load ptr, ptr %6, align 8, !tbaa !30
  %170 = load i64, ptr %7, align 8, !tbaa !11
  %171 = mul nsw i64 7, %170
  %172 = getelementptr inbounds i16, ptr %169, i64 %171
  store i16 %168, ptr %172, align 2, !tbaa !32
  br label %206

173:                                              ; preds = %22
  %174 = load ptr, ptr %6, align 8, !tbaa !30
  %175 = load i64, ptr %7, align 8, !tbaa !11
  %176 = mul nsw i64 7, %175
  %177 = getelementptr inbounds i16, ptr %174, i64 %176
  store i16 0, ptr %177, align 2, !tbaa !32
  %178 = load ptr, ptr %6, align 8, !tbaa !30
  %179 = load i64, ptr %7, align 8, !tbaa !11
  %180 = mul nsw i64 6, %179
  %181 = getelementptr inbounds i16, ptr %178, i64 %180
  store i16 0, ptr %181, align 2, !tbaa !32
  %182 = load ptr, ptr %6, align 8, !tbaa !30
  %183 = load i64, ptr %7, align 8, !tbaa !11
  %184 = mul nsw i64 5, %183
  %185 = getelementptr inbounds i16, ptr %182, i64 %184
  store i16 0, ptr %185, align 2, !tbaa !32
  %186 = load ptr, ptr %6, align 8, !tbaa !30
  %187 = load i64, ptr %7, align 8, !tbaa !11
  %188 = mul nsw i64 4, %187
  %189 = getelementptr inbounds i16, ptr %186, i64 %188
  store i16 0, ptr %189, align 2, !tbaa !32
  %190 = load ptr, ptr %6, align 8, !tbaa !30
  %191 = load i64, ptr %7, align 8, !tbaa !11
  %192 = mul nsw i64 3, %191
  %193 = getelementptr inbounds i16, ptr %190, i64 %192
  store i16 0, ptr %193, align 2, !tbaa !32
  %194 = load ptr, ptr %6, align 8, !tbaa !30
  %195 = load i64, ptr %7, align 8, !tbaa !11
  %196 = mul nsw i64 2, %195
  %197 = getelementptr inbounds i16, ptr %194, i64 %196
  store i16 0, ptr %197, align 2, !tbaa !32
  %198 = load ptr, ptr %6, align 8, !tbaa !30
  %199 = load i64, ptr %7, align 8, !tbaa !11
  %200 = mul nsw i64 1, %199
  %201 = getelementptr inbounds i16, ptr %198, i64 %200
  store i16 0, ptr %201, align 2, !tbaa !32
  %202 = load ptr, ptr %6, align 8, !tbaa !30
  %203 = load i64, ptr %7, align 8, !tbaa !11
  %204 = mul nsw i64 0, %203
  %205 = getelementptr inbounds i16, ptr %202, i64 %204
  store i16 0, ptr %205, align 2, !tbaa !32
  br label %206

206:                                              ; preds = %173, %29
  %207 = load ptr, ptr %5, align 8, !tbaa !40
  %208 = getelementptr inbounds nuw i32, ptr %207, i32 1
  store ptr %208, ptr %5, align 8, !tbaa !40
  %209 = load ptr, ptr %6, align 8, !tbaa !30
  %210 = getelementptr inbounds nuw i16, ptr %209, i32 1
  store ptr %210, ptr %6, align 8, !tbaa !30
  br label %211

211:                                              ; preds = %206
  %212 = load i32, ptr %9, align 4, !tbaa !13
  %213 = add nsw i32 %212, 1
  store i32 %213, ptr %9, align 4, !tbaa !13
  br label %19, !llvm.loop !45

214:                                              ; preds = %19
  call void @llvm.lifetime.end.p0(i64 4, ptr %18) #4
  call void @llvm.lifetime.end.p0(i64 4, ptr %17) #4
  call void @llvm.lifetime.end.p0(i64 4, ptr %16) #4
  call void @llvm.lifetime.end.p0(i64 4, ptr %15) #4
  call void @llvm.lifetime.end.p0(i64 4, ptr %14) #4
  call void @llvm.lifetime.end.p0(i64 4, ptr %13) #4
  call void @llvm.lifetime.end.p0(i64 4, ptr %12) #4
  call void @llvm.lifetime.end.p0(i64 4, ptr %11) #4
  call void @llvm.lifetime.end.p0(i64 4, ptr %10) #4
  call void @llvm.lifetime.end.p0(i64 4, ptr %9) #4
  ret void
}