; Function Attrs: nofree norecurse nosync nounwind memory(argmem: readwrite) uwtable
define void @ff_ivi_col_haar8(ptr noundef readonly captures(none) %0, ptr noundef writeonly captures(none) %1, i64 noundef %2, ptr noundef readonly captures(none) %3) local_unnamed_addr #2 {
  %.idx89 = shl nsw i64 %2, 2
  %.idx90 = mul nsw i64 %2, 6
  %.idx91 = shl nsw i64 %2, 3
  %.idx92 = mul nsw i64 %2, 10
  %.idx93 = mul nsw i64 %2, 12
  %.idx94 = mul nsw i64 %2, 14
  br label %5

5:                                                ; preds = %4, %77
  %indvars.iv = phi i64 [ 0, %4 ], [ %indvars.iv.next, %77 ]
  %.097 = phi ptr [ %0, %4 ], [ %78, %77 ]
  %.08296 = phi ptr [ %1, %4 ], [ %79, %77 ]
  %6 = getelementptr inbounds nuw i8, ptr %3, i64 %indvars.iv
  %7 = load i8, ptr %6, align 1, !tbaa !28
  %.not = icmp eq i8 %7, 0
  br i1 %.not, label %69, label %8

8:                                                ; preds = %5
  %9 = load i32, ptr %.097, align 4, !tbaa !34
  %10 = shl nsw i32 %9, 1
  %11 = getelementptr inbounds nuw i8, ptr %.097, i64 32
  %12 = load i32, ptr %11, align 4, !tbaa !34
  %13 = shl nsw i32 %12, 1
  %14 = sub nsw i32 %10, %13
  %15 = ashr exact i32 %14, 1
  %16 = add nsw i32 %13, %10
  %17 = ashr exact i32 %16, 1
  %18 = getelementptr inbounds nuw i8, ptr %.097, i64 64
  %19 = load i32, ptr %18, align 4, !tbaa !34
  %20 = sub nsw i32 %17, %19
  %21 = ashr i32 %20, 1
  %22 = add nsw i32 %17, %19
  %23 = ashr i32 %22, 1
  %24 = getelementptr inbounds nuw i8, ptr %.097, i64 96
  %25 = load i32, ptr %24, align 4, !tbaa !34
  %26 = sub nsw i32 %15, %25
  %27 = ashr i32 %26, 1
  %28 = add nsw i32 %15, %25
  %29 = ashr i32 %28, 1
  %30 = getelementptr inbounds nuw i8, ptr %.097, i64 128
  %31 = load i32, ptr %30, align 4, !tbaa !34
  %32 = sub nsw i32 %23, %31
  %33 = lshr i32 %32, 1
  %34 = add nsw i32 %23, %31
  %35 = lshr i32 %34, 1
  %36 = getelementptr inbounds nuw i8, ptr %.097, i64 160
  %37 = load i32, ptr %36, align 4, !tbaa !34
  %38 = sub nsw i32 %21, %37
  %39 = lshr i32 %38, 1
  %40 = add nsw i32 %21, %37
  %41 = lshr i32 %40, 1
  %42 = getelementptr inbounds nuw i8, ptr %.097, i64 192
  %43 = load i32, ptr %42, align 4, !tbaa !34
  %44 = sub nsw i32 %29, %43
  %45 = lshr i32 %44, 1
  %46 = add nsw i32 %29, %43
  %47 = lshr i32 %46, 1
  %48 = getelementptr inbounds nuw i8, ptr %.097, i64 224
  %49 = load i32, ptr %48, align 4, !tbaa !34
  %50 = sub nsw i32 %27, %49
  %51 = lshr i32 %50, 1
  %52 = add nsw i32 %49, %27
  %53 = lshr i32 %52, 1
  %54 = trunc i32 %35 to i16
  store i16 %54, ptr %.08296, align 2, !tbaa !27
  %55 = trunc i32 %33 to i16
  %56 = getelementptr inbounds i16, ptr %.08296, i64 %2
  store i16 %55, ptr %56, align 2, !tbaa !27
  %57 = trunc i32 %41 to i16
  %58 = getelementptr inbounds i8, ptr %.08296, i64 %.idx89
  store i16 %57, ptr %58, align 2, !tbaa !27
  %59 = trunc i32 %39 to i16
  %60 = getelementptr inbounds i8, ptr %.08296, i64 %.idx90
  store i16 %59, ptr %60, align 2, !tbaa !27
  %61 = trunc i32 %47 to i16
  %62 = getelementptr inbounds i8, ptr %.08296, i64 %.idx91
  store i16 %61, ptr %62, align 2, !tbaa !27
  %63 = trunc i32 %45 to i16
  %64 = getelementptr inbounds i8, ptr %.08296, i64 %.idx92
  store i16 %63, ptr %64, align 2, !tbaa !27
  %65 = trunc i32 %53 to i16
  %66 = getelementptr inbounds i8, ptr %.08296, i64 %.idx93
  store i16 %65, ptr %66, align 2, !tbaa !27
  %67 = trunc i32 %51 to i16
  %68 = getelementptr inbounds i8, ptr %.08296, i64 %.idx94
  store i16 %67, ptr %68, align 2, !tbaa !27
  br label %77

69:                                               ; preds = %5
  %70 = getelementptr inbounds i8, ptr %.08296, i64 %.idx94
  store i16 0, ptr %70, align 2, !tbaa !27
  %71 = getelementptr inbounds i8, ptr %.08296, i64 %.idx93
  store i16 0, ptr %71, align 2, !tbaa !27
  %72 = getelementptr inbounds i8, ptr %.08296, i64 %.idx92
  store i16 0, ptr %72, align 2, !tbaa !27
  %73 = getelementptr inbounds i8, ptr %.08296, i64 %.idx91
  store i16 0, ptr %73, align 2, !tbaa !27
  %74 = getelementptr inbounds i8, ptr %.08296, i64 %.idx90
  store i16 0, ptr %74, align 2, !tbaa !27
  %75 = getelementptr inbounds i8, ptr %.08296, i64 %.idx89
  store i16 0, ptr %75, align 2, !tbaa !27
  %76 = getelementptr inbounds i16, ptr %.08296, i64 %2
  store i16 0, ptr %76, align 2, !tbaa !27
  store i16 0, ptr %.08296, align 2, !tbaa !27
  br label %77

77:                                               ; preds = %69, %8
  %78 = getelementptr inbounds nuw i8, ptr %.097, i64 4
  %79 = getelementptr inbounds nuw i8, ptr %.08296, i64 2
  %indvars.iv.next = add nuw nsw i64 %indvars.iv, 1
  %exitcond.not = icmp eq i64 %indvars.iv.next, 8
  br i1 %exitcond.not, label %80, label %5, !llvm.loop !38

80:                                               ; preds = %77
  ret void
}